ccopy_reg
_reconstructor
p0
(cargparse
Namespace
p1
c__builtin__
object
p2
Ntp3
Rp4
(dp5
S'grad_clip'
p6
F10.0
sS'rnn_size'
p7
I128
sS'embedding_size'
p8
I64
sS'grid_size'
p9
I4
sS'visible'
p10
NsS'mode'
p11
S'social'
p12
sS'dataset_path'
p13
S'./../data/'
p14
sS'learning_rate'
p15
F0.005
sS'num_layers'
p16
I1
sS'seq_length'
p17
I8
sS'maxNumPeds'
p18
I50
sS'decay_rate'
p19
F0.95
sS'batch_size'
p20
I10
sS'num_epochs'
p21
I10
sS'model'
p22
S'lstm'
p23
sS'save_every'
p24
I400
sS'keep_prob'
p25
F0.8
sS'neighborhood_size'
p26
I32
sb.